; Function Attrs: mustprogress nounwind uwtable
define internal fastcc void @_ZN8pybind116detail15argument_loaderIJRN12_GLOBAL__N_112SharedPtrRefESt10shared_ptrINS3_1AEEEED2Ev(ptr %.32.val) unnamed_addr #0 align 2 personality ptr @__gxx_personality_v0 {
  %.not.i.i.i.i.i.i.i.i.i = icmp eq ptr %.32.val, null
  br i1 %.not.i.i.i.i.i.i.i.i.i, label %_ZNSt5tupleIJN8pybind116detail11type_casterIN12_GLOBAL__N_112SharedPtrRefEvEENS2_ISt10shared_ptrINS4_1AEEvEEEED2Ev.exit, label %1

1:                                                ; preds = %0
  %2 = getelementptr inbounds i8, ptr %.32.val, i64 8
  %3 = load atomic i64, ptr %2 acquire, align 8
  %4 = icmp eq i64 %3, 4294967297
  %5 = trunc i64 %3 to i32
  br i1 %4, label %6, label %11

6:                                                ; preds = %1
  store i32 0, ptr %2, align 8
  %7 = getelementptr inbounds i8, ptr %.32.val, i64 12
  store i32 0, ptr %7, align 4
  %8 = load ptr, ptr %.32.val, align 8
  %9 = getelementptr inbounds i8, ptr %8, i64 16
  %10 = load ptr, ptr %9, align 8
  tail call void %10(ptr noundef nonnull align 8 dereferenceable(16) %.32.val) #28
  br label %_ZNSt16_Sp_counted_baseILN9__gnu_cxx12_Lock_policyE2EE24_M_release_last_use_coldEv.exit.sink.split.i.i.i.i.i.i.i.i.i.i

11:                                               ; preds = %1
  %12 = load i8, ptr @__libc_single_threaded, align 1
  %.not.i.i.i.i.i.i.i.i.i.i = icmp eq i8 %12, 0
  br i1 %.not.i.i.i.i.i.i.i.i.i.i, label %15, label %13

13:                                               ; preds = %11
  %14 = add nsw i32 %5, -1
  store i32 %14, ptr %2, align 4
  br label %17

15:                                               ; preds = %11
  %16 = atomicrmw volatile add ptr %2, i32 -1 acq_rel, align 4
  br label %17

17:                                               ; preds = %15, %13
  %.0.i.i.i.i.i.i.i.i.i.i = phi i32 [ %5, %13 ], [ %16, %15 ]
  %18 = icmp eq i32 %.0.i.i.i.i.i.i.i.i.i.i, 1
  br i1 %18, label %19, label %_ZNSt5tupleIJN8pybind116detail11type_casterIN12_GLOBAL__N_112SharedPtrRefEvEENS2_ISt10shared_ptrINS4_1AEEvEEEED2Ev.exit

19:                                               ; preds = %17
  %20 = load ptr, ptr %.32.val, align 8
  %21 = getelementptr inbounds i8, ptr %20, i64 16
  %22 = load ptr, ptr %21, align 8
  tail call void %22(ptr noundef nonnull align 8 dereferenceable(16) %.32.val) #28
  %23 = getelementptr inbounds i8, ptr %.32.val, i64 12
  %24 = load i8, ptr @__libc_single_threaded, align 1
  %.not.i.i.i.i.i.i.i.i.i.i.i.i = icmp eq i8 %24, 0
  br i1 %.not.i.i.i.i.i.i.i.i.i.i.i.i, label %28, label %25

25:                                               ; preds = %19
  %26 = load i32, ptr %23, align 4
  %27 = add nsw i32 %26, -1
  store i32 %27, ptr %23, align 4
  br label %30

28:                                               ; preds = %19
  %29 = atomicrmw volatile add ptr %23, i32 -1 acq_rel, align 4
  br label %30

30:                                               ; preds = %28, %25
  %.0.i.i.i.i.i.i.i.i.i.i.i.i = phi i32 [ %26, %25 ], [ %29, %28 ]
  %31 = icmp eq i32 %.0.i.i.i.i.i.i.i.i.i.i.i.i, 1
  br i1 %31, label %_ZNSt16_Sp_counted_baseILN9__gnu_cxx12_Lock_policyE2EE24_M_release_last_use_coldEv.exit.sink.split.i.i.i.i.i.i.i.i.i.i, label %_ZNSt5tupleIJN8pybind116detail11type_casterIN12_GLOBAL__N_112SharedPtrRefEvEENS2_ISt10shared_ptrINS4_1AEEvEEEED2Ev.exit

_ZNSt16_Sp_counted_baseILN9__gnu_cxx12_Lock_policyE2EE24_M_release_last_use_coldEv.exit.sink.split.i.i.i.i.i.i.i.i.i.i: ; preds = %30, %6
  %32 = load ptr, ptr %.32.val, align 8
  %33 = getelementptr inbounds i8, ptr %32, i64 24
  %34 = load ptr, ptr %33, align 8
  tail call void %34(ptr noundef nonnull align 8 dereferenceable(16) %.32.val) #28
  br label %_ZNSt5tupleIJN8pybind116detail11type_casterIN12_GLOBAL__N_112SharedPtrRefEvEENS2_ISt10shared_ptrINS4_1AEEvEEEED2Ev.exit

_ZNSt5tupleIJN8pybind116detail11type_casterIN12_GLOBAL__N_112SharedPtrRefEvEENS2_ISt10shared_ptrINS4_1AEEvEEEED2Ev.exit: ; preds = %0, %17, %30, %_ZNSt16_Sp_counted_baseILN9__gnu_cxx12_Lock_policyE2EE24_M_release_last_use_coldEv.exit.sink.split.i.i.i.i.i.i.i.i.i.i
  ret void
}